target datalayout = "e-m:e-p270:32:32-p271:32:32-p272:64:64-i64:64-i128:128-f80:128-n8:16:32:64-S128"
target triple = "x86_64-pc-linux-gnu"

%class.XMarkStackEntry = type { i64 }

@XAddressOffsetMask = external global i64, align 8
@XAddressGoodMask = external global i64, align 8

; Function Attrs: mustprogress nounwind uwtable
define linkonce_odr hidden void @_ZN8XBarrier25mark_barrier_on_oop_arrayEPVP7oopDescmb(ptr noundef %0, i64 noundef %1, i1 noundef zeroext %2) #1 comdat align 2 {
  %4 = alloca ptr, align 8
  %5 = alloca i64, align 8
  %6 = alloca i8, align 1
  %7 = alloca ptr, align 8
  store ptr %0, ptr %4, align 8
  store i64 %1, ptr %5, align 8
  %8 = zext i1 %2 to i8
  store i8 %8, ptr %6, align 1
  %9 = load ptr, ptr %4, align 8
  %10 = load i64, ptr %5, align 8
  %11 = getelementptr inbounds ptr, ptr %9, i64 %10
  store ptr %11, ptr %7, align 8
  br label %12

12:                                               ; preds = %20, %3
  %13 = load ptr, ptr %4, align 8
  %14 = load ptr, ptr %7, align 8
  %15 = icmp ult ptr %13, %14
  br i1 %15, label %16, label %23

16:                                               ; preds = %12
  %17 = load ptr, ptr %4, align 8
  %18 = load i8, ptr %6, align 1
  %19 = trunc i8 %18 to i1
  call void @_ZN8XBarrier25mark_barrier_on_oop_fieldEPVP7oopDescb(ptr noundef %17, i1 noundef zeroext %19)
  br label %20

20:                                               ; preds = %16
  %21 = load ptr, ptr %4, align 8
  %22 = getelementptr inbounds ptr, ptr %21, i32 1
  store ptr %22, ptr %4, align 8
  br label %12, !llvm.loop !8

23:                                               ; preds = %12
  ret void
}

; Function Attrs: mustprogress nounwind uwtable
define hidden void @_ZN5XMark18follow_small_arrayEmmb(ptr noundef nonnull align 64 dereferenceable(2492) %0, i64 noundef %1, i64 noundef %2, i1 noundef zeroext %3) #1 align 2 {
  %5 = alloca ptr, align 8
  %6 = alloca i64, align 8
  %7 = alloca i64, align 8
  %8 = alloca i8, align 1
  %9 = alloca i64, align 8
  store ptr %0, ptr %5, align 8
  store i64 %1, ptr %6, align 8
  store i64 %2, ptr %7, align 8
  %10 = zext i1 %3 to i8
  store i8 %10, ptr %8, align 1
  %11 = load i64, ptr %7, align 8
  %12 = udiv i64 %11, 8
  store i64 %12, ptr %9, align 8
  %13 = load i64, ptr %6, align 8
  %14 = inttoptr i64 %13 to ptr
  %15 = load i64, ptr %9, align 8
  %16 = load i8, ptr %8, align 1
  %17 = trunc i8 %16 to i1
  call void @_ZN8XBarrier25mark_barrier_on_oop_arrayEPVP7oopDescmb(ptr noundef %14, i64 noundef %15, i1 noundef zeroext %17)
  ret void
}

; Function Attrs: mustprogress nounwind uwtable
define linkonce_odr hidden noundef i64 @_ZN9XBitFieldImmLi2ELi30ELi0EE6decodeEm(i64 noundef %0) #1 comdat align 2 {
  %2 = alloca i64, align 8
  store i64 %0, ptr %2, align 8
  %3 = load i64, ptr %2, align 8
  %4 = lshr i64 %3, 2
  %5 = and i64 %4, 1073741823
  %6 = shl i64 %5, 0
  ret i64 %6
}

; Function Attrs: mustprogress nounwind uwtable
define linkonce_odr hidden noundef i64 @_ZN8XAddress6offsetEm(i64 noundef %0) #1 comdat align 2 {
  %2 = alloca i64, align 8
  store i64 %0, ptr %2, align 8
  %3 = load i64, ptr %2, align 8
  %4 = load i64, ptr @XAddressOffsetMask, align 8
  %5 = and i64 %3, %4
  ret i64 %5
}

; Function Attrs: mustprogress nounwind uwtable
define linkonce_odr hidden noundef i64 @_ZN9XBitFieldImmLi32ELi32ELi0EE6decodeEm(i64 noundef %0) #1 comdat align 2 {
  %2 = alloca i64, align 8
  store i64 %0, ptr %2, align 8
  %3 = load i64, ptr %2, align 8
  %4 = lshr i64 %3, 32
  %5 = and i64 %4, 4294967295
  %6 = shl i64 %5, 0
  ret i64 %6
}

; Function Attrs: mustprogress nounwind uwtable
define hidden void @_ZN5XMark12follow_arrayEmmb(ptr noundef nonnull align 64 dereferenceable(2492) %0, i64 noundef %1, i64 noundef %2, i1 noundef zeroext %3) #1 align 2 {
  %5 = alloca ptr, align 8
  %6 = alloca i64, align 8
  %7 = alloca i64, align 8
  %8 = alloca i8, align 1
  store ptr %0, ptr %5, align 8
  store i64 %1, ptr %6, align 8
  store i64 %2, ptr %7, align 8
  %9 = zext i1 %3 to i8
  store i8 %9, ptr %8, align 1
  %10 = load ptr, ptr %5, align 8
  %11 = load i64, ptr %7, align 8
  %12 = icmp ule i64 %11, 4096
  br i1 %12, label %13, label %18

13:                                               ; preds = %4
  %14 = load i64, ptr %6, align 8
  %15 = load i64, ptr %7, align 8
  %16 = load i8, ptr %8, align 1
  %17 = trunc i8 %16 to i1
  call void @_ZN5XMark18follow_small_arrayEmmb(ptr noundef nonnull align 64 dereferenceable(2492) %10, i64 noundef %14, i64 noundef %15, i1 noundef zeroext %17)
  br label %23

18:                                               ; preds = %4
  %19 = load i64, ptr %6, align 8
  %20 = load i64, ptr %7, align 8
  %21 = load i8, ptr %8, align 1
  %22 = trunc i8 %21 to i1
  call void @_ZN5XMark18follow_large_arrayEmmb(ptr noundef nonnull align 64 dereferenceable(2492) %10, i64 noundef %19, i64 noundef %20, i1 noundef zeroext %22)
  br label %23

23:                                               ; preds = %18, %13
  ret void
}

; Function Attrs: mustprogress nounwind uwtable
define linkonce_odr hidden noundef i64 @_ZNK15XMarkStackEntry20partial_array_lengthEv(ptr noundef nonnull align 8 dereferenceable(8) %0) #1 comdat align 2 {
  %2 = alloca ptr, align 8
  store ptr %0, ptr %2, align 8
  %3 = load ptr, ptr %2, align 8
  %4 = getelementptr inbounds %class.XMarkStackEntry, ptr %3, i32 0, i32 0
  %5 = load i64, ptr %4, align 8
  %6 = call noundef i64 @_ZN9XBitFieldImmLi2ELi30ELi0EE6decodeEm(i64 noundef %5)
  ret i64 %6
}

; Function Attrs: mustprogress nounwind uwtable
define linkonce_odr hidden noundef i64 @_ZN8XAddress4goodEm(i64 noundef %0) #1 comdat align 2 {
  %2 = alloca i64, align 8
  store i64 %0, ptr %2, align 8
  %3 = load i64, ptr %2, align 8
  %4 = call noundef i64 @_ZN8XAddress6offsetEm(i64 noundef %3)
  %5 = load i64, ptr @XAddressGoodMask, align 8
  %6 = or i64 %4, %5
  ret i64 %6
}

; Function Attrs: mustprogress nounwind uwtable
define linkonce_odr hidden noundef i64 @_ZNK15XMarkStackEntry20partial_array_offsetEv(ptr noundef nonnull align 8 dereferenceable(8) %0) #1 comdat align 2 {
  %2 = alloca ptr, align 8
  store ptr %0, ptr %2, align 8
  %3 = load ptr, ptr %2, align 8
  %4 = getelementptr inbounds %class.XMarkStackEntry, ptr %3, i32 0, i32 0
  %5 = load i64, ptr %4, align 8
  %6 = call noundef i64 @_ZN9XBitFieldImmLi32ELi32ELi0EE6decodeEm(i64 noundef %5)
  ret i64 %6
}

; Function Attrs: mustprogress nounwind uwtable
define hidden void @_ZN5XMark20follow_partial_arrayE15XMarkStackEntryb(ptr noundef nonnull align 64 dereferenceable(2492) %0, i64 %1, i1 noundef zeroext %2) #1 align 2 {
  %4 = alloca %class.XMarkStackEntry, align 8
  %5 = alloca ptr, align 8
  %6 = alloca i8, align 1
  %7 = alloca i64, align 8
  %8 = alloca i64, align 8
  %9 = getelementptr inbounds %class.XMarkStackEntry, ptr %4, i32 0, i32 0
  store i64 %1, ptr %9, align 8
  store ptr %0, ptr %5, align 8
  %10 = zext i1 %2 to i8
  store i8 %10, ptr %6, align 1
  %11 = load ptr, ptr %5, align 8
  %12 = call noundef i64 @_ZNK15XMarkStackEntry20partial_array_offsetEv(ptr noundef nonnull align 8 dereferenceable(8) %4)
  %13 = shl i64 %12, 12
  %14 = call noundef i64 @_ZN8XAddress4goodEm(i64 noundef %13)
  store i64 %14, ptr %7, align 8
  %15 = call noundef i64 @_ZNK15XMarkStackEntry20partial_array_lengthEv(ptr noundef nonnull align 8 dereferenceable(8) %4)
  %16 = mul i64 %15, 8
  store i64 %16, ptr %8, align 8
  %17 = load i64, ptr %7, align 8
  %18 = load i64, ptr %8, align 8
  %19 = load i8, ptr %6, align 1
  %20 = trunc i8 %19 to i1
  call void @_ZN5XMark12follow_arrayEmmb(ptr noundef nonnull align 64 dereferenceable(2492) %11, i64 noundef %17, i64 noundef %18, i1 noundef zeroext %20)
  ret void
}