; Function Attrs: mustprogress nounwind uwtable
define hidden void @_ZN5XMark20follow_partial_arrayE15XMarkStackEntryb(ptr noundef nonnull align 64 dereferenceable(2492) %0, i64 %1, i1 noundef zeroext %2) local_unnamed_addr #0 align 2 {
  %4 = lshr i64 %1, 20
  %5 = and i64 %4, 17592186040320
  %6 = load i64, ptr @XAddressOffsetMask, align 8
  %7 = and i64 %5, %6
  %8 = load i64, ptr @XAddressGoodMask, align 8
  %9 = or i64 %7, %8
  %10 = shl i64 %1, 1
  %11 = and i64 %10, 8589934584
  %12 = icmp ult i64 %11, 4097
  br i1 %12, label %13, label %18

13:                                               ; preds = %3
  %14 = inttoptr i64 %9 to ptr
  %15 = getelementptr inbounds i8, ptr %14, i64 %11
  %.not.i.i = icmp eq i64 %11, 0
  br i1 %.not.i.i, label %_ZN5XMark12follow_arrayEmmb.exit, label %.lr.ph.i.i.i

.lr.ph.i.i.i:                                     ; preds = %13, %.lr.ph.i.i.i
  %.06.i.i.i = phi ptr [ %16, %.lr.ph.i.i.i ], [ %14, %13 ]
  tail call void @_ZN8XBarrier25mark_barrier_on_oop_fieldEPVP7oopDescb(ptr noundef %.06.i.i.i, i1 noundef zeroext %2)
  %16 = getelementptr inbounds i8, ptr %.06.i.i.i, i64 8
  %17 = icmp ult ptr %16, %15
  br i1 %17, label %.lr.ph.i.i.i, label %_ZN5XMark12follow_arrayEmmb.exit, !llvm.loop !8

18:                                               ; preds = %3
  tail call void @_ZN5XMark18follow_large_arrayEmmb(ptr noundef nonnull align 64 dereferenceable(2492) %0, i64 noundef %9, i64 noundef %11, i1 noundef zeroext %2)
  br label %_ZN5XMark12follow_arrayEmmb.exit

_ZN5XMark12follow_arrayEmmb.exit:                 ; preds = %.lr.ph.i.i.i, %13, %18
  ret void
}